; Function Attrs: nounwind uwtable
define internal i32 @dissect_h223_bitswapped_circuit_data(ptr noundef %0, ptr noundef %1, ptr noundef %2, ptr noundef readonly %3) #0 {
  %.not = icmp eq ptr %3, null
  br i1 %.not, label %5, label %6

5:                                                ; preds = %4
  tail call void (ptr, ...) @proto_report_dissector_bug(ptr noundef nonnull @.str.112, ptr noundef nonnull @.str.113, i32 noundef 1390, ptr noundef nonnull @.str.105) #13
  unreachable

6:                                                ; preds = %4
  %.sroa.0.0.copyload = load i32, ptr %3, align 4
  %.sroa.2.0..sroa_idx = getelementptr inbounds nuw i8, ptr %3, i64 4
  %.sroa.2.0.copyload = load i32, ptr %.sroa.2.0..sroa_idx, align 4
  %7 = tail call i32 @tvb_reported_length(ptr noundef %0) #12
  %8 = getelementptr inbounds nuw i8, ptr %1, i64 408
  %9 = load ptr, ptr %8, align 8
  %10 = zext i32 %7 to i64
  %11 = tail call ptr @tvb_memdup(ptr noundef %9, ptr noundef %0, i32 noundef 0, i64 noundef %10) #12
  tail call void @bitswap_buf_inplace(ptr noundef %11, i64 noundef %10) #12
  %12 = tail call i32 @tvb_reported_length(ptr noundef %0) #12
  %13 = tail call ptr @tvb_new_child_real_data(ptr noundef %0, ptr noundef %11, i32 noundef %7, i32 noundef %12) #12
  tail call void @add_new_data_source(ptr noundef %1, ptr noundef %13, ptr noundef nonnull @.str.130) #12
  tail call fastcc void @dissect_h223_common(ptr noundef %13, ptr noundef %1, ptr noundef %2, i32 noundef %.sroa.0.0.copyload, i32 noundef %.sroa.2.0.copyload)
  %14 = tail call i32 @tvb_captured_length(ptr noundef %0) #12
  ret i32 %14
}